; Function Attrs: mustprogress uwtable
define internal noundef zeroext i1 @"_ZNSt17_Function_handlerIFvRN2tf7RuntimeEEZNS0_25make_reduce_by_index_taskINS0_10IndexRangeImEEdZ15reduce_by_indexmE3$_0St4plusIdENS0_17GuidedPartitionerINS0_21DefaultClosureWrapperEEEEEDaT_RT0_T1_T2_T3_EUlS2_E_E10_M_managerERSt9_Any_dataRKSL_St18_Manager_operation"(ptr noundef nonnull align 8 captures(none) dereferenceable(16) %0, ptr noundef nonnull readonly align 8 captures(none) dereferenceable(16) %1, i32 noundef %2) #3 align 2 {
  switch i32 %2, label %"_ZNSt14_Function_base13_Base_managerIZN2tf25make_reduce_by_index_taskINS1_10IndexRangeImEEdZ15reduce_by_indexmE3$_0St4plusIdENS1_17GuidedPartitionerINS1_21DefaultClosureWrapperEEEEEDaT_RT0_T1_T2_T3_EUlRNS1_7RuntimeEE_E10_M_managerERSt9_Any_dataRKSL_St18_Manager_operation.exit" [
    i32 0, label %4
    i32 1, label %5
    i32 3, label %8
    i32 2, label %6
  ]

4:                                                ; preds = %3
  store ptr @"_ZTIZN2tf25make_reduce_by_index_taskINS_10IndexRangeImEEdZ15reduce_by_indexmE3$_0St4plusIdENS_17GuidedPartitionerINS_21DefaultClosureWrapperEEEEEDaT_RT0_T1_T2_T3_EUlRNS_7RuntimeEE_", ptr %0, align 8, !tbaa !489
  br label %"_ZNSt14_Function_base13_Base_managerIZN2tf25make_reduce_by_index_taskINS1_10IndexRangeImEEdZ15reduce_by_indexmE3$_0St4plusIdENS1_17GuidedPartitionerINS1_21DefaultClosureWrapperEEEEEDaT_RT0_T1_T2_T3_EUlRNS1_7RuntimeEE_E10_M_managerERSt9_Any_dataRKSL_St18_Manager_operation.exit"

5:                                                ; preds = %3
  %.val = load ptr, ptr %1, align 8, !tbaa !99
  store ptr %.val, ptr %0, align 8, !tbaa !99
  br label %"_ZNSt14_Function_base13_Base_managerIZN2tf25make_reduce_by_index_taskINS1_10IndexRangeImEEdZ15reduce_by_indexmE3$_0St4plusIdENS1_17GuidedPartitionerINS1_21DefaultClosureWrapperEEEEEDaT_RT0_T1_T2_T3_EUlRNS1_7RuntimeEE_E10_M_managerERSt9_Any_dataRKSL_St18_Manager_operation.exit"

6:                                                ; preds = %3
  %.val6 = load ptr, ptr %1, align 8
  %7 = tail call noalias noundef nonnull dereferenceable(64) ptr @_Znwm(i64 noundef 64) #35
  tail call void @llvm.memcpy.p0.p0.i64(ptr noundef nonnull align 16 dereferenceable(64) %7, ptr noundef nonnull readonly align 8 dereferenceable(64) %.val6, i64 64, i1 false)
  store ptr %7, ptr %0, align 8, !tbaa !99
  br label %"_ZNSt14_Function_base13_Base_managerIZN2tf25make_reduce_by_index_taskINS1_10IndexRangeImEEdZ15reduce_by_indexmE3$_0St4plusIdENS1_17GuidedPartitionerINS1_21DefaultClosureWrapperEEEEEDaT_RT0_T1_T2_T3_EUlRNS1_7RuntimeEE_E10_M_managerERSt9_Any_dataRKSL_St18_Manager_operation.exit"

8:                                                ; preds = %3
  %.val7.i = load ptr, ptr %0, align 8, !tbaa !99
  %9 = icmp eq ptr %.val7.i, null
  br i1 %9, label %"_ZNSt14_Function_base13_Base_managerIZN2tf25make_reduce_by_index_taskINS1_10IndexRangeImEEdZ15reduce_by_indexmE3$_0St4plusIdENS1_17GuidedPartitionerINS1_21DefaultClosureWrapperEEEEEDaT_RT0_T1_T2_T3_EUlRNS1_7RuntimeEE_E10_M_managerERSt9_Any_dataRKSL_St18_Manager_operation.exit", label %10

10:                                               ; preds = %8
  tail call void @_ZdlPvm(ptr noundef nonnull %.val7.i, i64 noundef 64) #36
  br label %"_ZNSt14_Function_base13_Base_managerIZN2tf25make_reduce_by_index_taskINS1_10IndexRangeImEEdZ15reduce_by_indexmE3$_0St4plusIdENS1_17GuidedPartitionerINS1_21DefaultClosureWrapperEEEEEDaT_RT0_T1_T2_T3_EUlRNS1_7RuntimeEE_E10_M_managerERSt9_Any_dataRKSL_St18_Manager_operation.exit"

"_ZNSt14_Function_base13_Base_managerIZN2tf25make_reduce_by_index_taskINS1_10IndexRangeImEEdZ15reduce_by_indexmE3$_0St4plusIdENS1_17GuidedPartitionerINS1_21DefaultClosureWrapperEEEEEDaT_RT0_T1_T2_T3_EUlRNS1_7RuntimeEE_E10_M_managerERSt9_Any_dataRKSL_St18_Manager_operation.exit": ; preds = %3, %10, %8, %6, %5, %4
  ret i1 false
}